; Function Attrs: mustprogress nofree norecurse nosync nounwind willreturn memory(argmem: readwrite) uwtable
define internal noundef zeroext i1 @"_ZNSt17_Function_handlerIFSt3setIN3nix11RealisationESt4lessIS2_ESaIS2_EERKS2_EZNS1_9copyPathsERNS1_5StoreESB_RKS0_INS1_12RealisedPathES3_ISC_ESaISC_EENS1_10RepairFlagENS1_13CheckSigsFlagENS1_14SubstituteFlagEE3$_0E10_M_managerERSt9_Any_dataRKSN_St18_Manager_operation"(ptr nocapture noundef nonnull writeonly align 8 dereferenceable(16) %0, ptr noundef nonnull align 8 dereferenceable(16) %1, i32 noundef %2) #24 align 2 personality ptr @__gxx_personality_v0 {
  switch i32 %2, label %"_ZNSt14_Function_base13_Base_managerIZN3nix9copyPathsERNS1_5StoreES3_RKSt3setINS1_12RealisedPathESt4lessIS5_ESaIS5_EENS1_10RepairFlagENS1_13CheckSigsFlagENS1_14SubstituteFlagEE3$_0E10_M_managerERSt9_Any_dataRKSH_St18_Manager_operation.exit" [
    i32 0, label %4
    i32 1, label %5
    i32 2, label %6
  ]

4:                                                ; preds = %3
  store ptr @"_ZTIZN3nix9copyPathsERNS_5StoreES1_RKSt3setINS_12RealisedPathESt4lessIS3_ESaIS3_EENS_10RepairFlagENS_13CheckSigsFlagENS_14SubstituteFlagEE3$_0", ptr %0, align 8
  br label %"_ZNSt14_Function_base13_Base_managerIZN3nix9copyPathsERNS1_5StoreES3_RKSt3setINS1_12RealisedPathESt4lessIS5_ESaIS5_EENS1_10RepairFlagENS1_13CheckSigsFlagENS1_14SubstituteFlagEE3$_0E10_M_managerERSt9_Any_dataRKSH_St18_Manager_operation.exit"

5:                                                ; preds = %3
  store ptr %1, ptr %0, align 8
  br label %"_ZNSt14_Function_base13_Base_managerIZN3nix9copyPathsERNS1_5StoreES3_RKSt3setINS1_12RealisedPathESt4lessIS5_ESaIS5_EENS1_10RepairFlagENS1_13CheckSigsFlagENS1_14SubstituteFlagEE3$_0E10_M_managerERSt9_Any_dataRKSH_St18_Manager_operation.exit"

6:                                                ; preds = %3
  %.val.i = load i64, ptr %1, align 8
  store i64 %.val.i, ptr %0, align 8
  br label %"_ZNSt14_Function_base13_Base_managerIZN3nix9copyPathsERNS1_5StoreES3_RKSt3setINS1_12RealisedPathESt4lessIS5_ESaIS5_EENS1_10RepairFlagENS1_13CheckSigsFlagENS1_14SubstituteFlagEE3$_0E10_M_managerERSt9_Any_dataRKSH_St18_Manager_operation.exit"

"_ZNSt14_Function_base13_Base_managerIZN3nix9copyPathsERNS1_5StoreES3_RKSt3setINS1_12RealisedPathESt4lessIS5_ESaIS5_EENS1_10RepairFlagENS1_13CheckSigsFlagENS1_14SubstituteFlagEE3$_0E10_M_managerERSt9_Any_dataRKSH_St18_Manager_operation.exit": ; preds = %3, %6, %5, %4
  ret i1 false
}